target datalayout = "e-m:e-p270:32:32-p271:32:32-p272:64:64-i64:64-i128:128-f80:128-n8:16:32:64-S128"
target triple = "x86_64-pc-linux-gnu"

%struct.Vmem = type { ptr, i64, i64 }
%struct.ParseContext_ = type { %struct.TokenData, i32, %union.SourceSpan, %union.SourceSpan, ptr, %struct.Lexer }
%struct.TokenData = type { ptr, i64, %union.anon.86 }
%union.anon.86 = type { %struct.anon.89 }
%struct.anon.89 = type { %struct.Int128_, i8 }
%struct.Int128_ = type { i64, i64 }
%union.SourceSpan = type { i64 }
%struct.Lexer = type { ptr, ptr, ptr, ptr, i32, i32, ptr, ptr, ptr, %struct.TokenData, %union.SourceSpan, i32, i32 }
%struct.Ast_ = type { %union.SourceSpan, i32, i8, %union.anon.62 }
%union.anon.62 = type { %struct.AstDocDirective_ }
%struct.AstDocDirective_ = type { i8, %union.anon.65 }
%union.anon.65 = type { %struct.anon.66 }
%struct.anon.66 = type { ptr, %union.SourceSpan, i8 }
%struct.Expr_ = type { ptr, %union.SourceSpan, i16, %union.anon.30 }
%union.anon.30 = type { %struct.ExprAnySwitch }
%struct.ExprAnySwitch = type { i8, %union.anon.32 }
%union.anon.32 = type { %struct.anon.33 }
%struct.anon.33 = type { ptr, %union.SourceSpan, ptr }

@poisoned_ast = external global ptr, align 8
@.str.15 = private unnamed_addr constant [21 x i8] c"Expected a ';' here.\00", align 1
@ast_arena = external global %struct.Vmem, align 8

; Function Attrs: nounwind uwtable
define internal ptr @consume_eos(ptr noundef %0, ptr noundef %1) #0 {
  %3 = alloca ptr, align 8
  %4 = alloca ptr, align 8
  %5 = alloca ptr, align 8
  store ptr %0, ptr %4, align 8
  store ptr %1, ptr %5, align 8
  %6 = load ptr, ptr %4, align 8
  %7 = call zeroext i1 @try_consume(ptr noundef %6, i32 noundef 9)
  br i1 %7, label %15, label %8

8:                                                ; preds = %2
  %9 = load ptr, ptr %4, align 8
  %10 = getelementptr inbounds %struct.ParseContext_, ptr %9, i32 0, i32 3
  %11 = getelementptr inbounds %union.SourceSpan, ptr %10, i32 0, i32 0
  %12 = load i64, ptr %11, align 8
  call void (i64, ptr, ...) @sema_error_at_after(i64 %12, ptr noundef @.str.15)
  %13 = load ptr, ptr %4, align 8
  call void @advance(ptr noundef %13)
  %14 = load ptr, ptr @poisoned_ast, align 8
  store ptr %14, ptr %3, align 8
  br label %17

15:                                               ; preds = %2
  %16 = load ptr, ptr %5, align 8
  store ptr %16, ptr %3, align 8
  br label %17

17:                                               ; preds = %15, %8
  %18 = load ptr, ptr %3, align 8
  ret ptr %18
}

; Function Attrs: nounwind uwtable
define internal ptr @ast_calloc() #0 {
  %1 = call ptr @vmem_alloc(ptr noundef @ast_arena, i64 noundef 48)
  ret ptr %1
}

; Function Attrs: nounwind uwtable
define dso_local ptr @parse_ct_echo_stmt(ptr noundef %0) #0 {
  %2 = alloca %union.SourceSpan, align 8
  %3 = alloca i32, align 4
  %4 = alloca ptr, align 8
  %5 = alloca ptr, align 8
  %6 = alloca ptr, align 8
  %7 = alloca i32, align 4
  %8 = alloca ptr, align 8
  %9 = alloca i32, align 4
  %10 = alloca ptr, align 8
  %11 = alloca ptr, align 8
  %12 = alloca ptr, align 8
  %13 = alloca ptr, align 8
  store ptr %0, ptr %11, align 8
  %14 = load ptr, ptr %11, align 8
  store ptr %14, ptr %8, align 8
  store i32 9, ptr %9, align 4
  %15 = load i32, ptr %9, align 4
  %16 = load ptr, ptr %8, align 8
  %17 = getelementptr inbounds %struct.ParseContext_, ptr %16, i32 0, i32 2
  %18 = load i64, ptr %17, align 8
  store i64 %18, ptr %2, align 8
  store i32 %15, ptr %3, align 4
  %19 = call ptr @ast_calloc()
  store ptr %19, ptr %4, align 8
  %20 = load ptr, ptr %4, align 8
  call void @llvm.memcpy.p0.p0.i64(ptr align 8 %20, ptr align 8 %2, i64 8, i1 false)
  %21 = load i32, ptr %3, align 4
  %22 = load ptr, ptr %4, align 8
  %23 = getelementptr inbounds %struct.Ast_, ptr %22, i32 0, i32 2
  %24 = trunc i32 %21 to i8
  store i8 %24, ptr %23, align 4
  %25 = load ptr, ptr %4, align 8
  store ptr %25, ptr %12, align 8
  %26 = load ptr, ptr %11, align 8
  store ptr %26, ptr %6, align 8
  store i32 152, ptr %7, align 4
  %27 = load ptr, ptr %6, align 8
  call void @advance(ptr noundef %27) #4
  %28 = load ptr, ptr %11, align 8
  %29 = call ptr @parse_constant_expr(ptr noundef %28)
  store ptr %29, ptr %13, align 8
  %30 = load ptr, ptr %13, align 8
  store ptr %30, ptr %5, align 8
  %31 = load ptr, ptr %5, align 8
  %32 = icmp eq ptr %31, null
  br i1 %32, label %40, label %33

33:                                               ; preds = %1
  %34 = load ptr, ptr %5, align 8
  %35 = getelementptr inbounds %struct.Expr_, ptr %34, i32 0, i32 2
  %36 = load i16, ptr %35, align 8
  %37 = and i16 %36, 255
  %38 = zext i16 %37 to i32
  %39 = icmp ne i32 %38, 0
  br label %40

40:                                               ; preds = %33, %1
  %41 = phi i1 [ true, %1 ], [ %39, %33 ]
  br i1 %41, label %44, label %42

42:                                               ; preds = %40
  %43 = load ptr, ptr @poisoned_ast, align 8
  store ptr %43, ptr %10, align 8
  br label %51

44:                                               ; preds = %40
  %45 = load ptr, ptr %13, align 8
  %46 = load ptr, ptr %12, align 8
  %47 = getelementptr inbounds %struct.Ast_, ptr %46, i32 0, i32 3
  store ptr %45, ptr %47, align 8
  %48 = load ptr, ptr %11, align 8
  %49 = load ptr, ptr %12, align 8
  %50 = call ptr @consume_eos(ptr noundef %48, ptr noundef %49)
  store ptr %50, ptr %10, align 8
  br label %51

51:                                               ; preds = %44, %42
  %52 = load ptr, ptr %10, align 8
  ret ptr %52
}