; Function Attrs: nounwind uwtable
define dso_local ptr @parse_ct_echo_stmt(ptr noundef %0) local_unnamed_addr #0 {
  %2 = getelementptr inbounds i8, ptr %0, i64 48
  %3 = load i64, ptr %2, align 8
  %4 = tail call ptr @vmem_alloc(ptr noundef nonnull @ast_arena, i64 noundef 48) #5
  store i64 %3, ptr %4, align 8
  %5 = getelementptr inbounds i8, ptr %4, i64 12
  store i8 9, ptr %5, align 4
  tail call void @advance(ptr noundef %0) #5
  %6 = tail call ptr @parse_constant_expr(ptr noundef %0) #5
  %7 = icmp eq ptr %6, null
  br i1 %7, label %.critedge, label %8

8:                                                ; preds = %1
  %9 = getelementptr inbounds i8, ptr %6, i64 16
  %10 = load i16, ptr %9, align 8
  %11 = and i16 %10, 255
  %.not = icmp eq i16 %11, 0
  br i1 %.not, label %12, label %.critedge

12:                                               ; preds = %8
  %13 = load ptr, ptr @poisoned_ast, align 8
  br label %consume_eos.exit

.critedge:                                        ; preds = %1, %8
  %14 = getelementptr inbounds i8, ptr %4, i64 16
  store ptr %6, ptr %14, align 8
  %15 = tail call zeroext i1 @try_consume(ptr noundef nonnull %0, i32 noundef 9) #5
  br i1 %15, label %consume_eos.exit, label %16

16:                                               ; preds = %.critedge
  %17 = getelementptr inbounds i8, ptr %0, i64 56
  %18 = load i64, ptr %17, align 8
  tail call void (i64, ptr, ...) @sema_error_at_after(i64 %18, ptr noundef nonnull @.str.15) #5
  tail call void @advance(ptr noundef nonnull %0) #5
  %19 = load ptr, ptr @poisoned_ast, align 8
  br label %consume_eos.exit

consume_eos.exit:                                 ; preds = %16, %.critedge, %12
  %.0 = phi ptr [ %13, %12 ], [ %19, %16 ], [ %4, %.critedge ]
  ret ptr %.0
}